; Function Attrs: nounwind uwtable
define hidden ptr @_PyAST_Expr(ptr noundef %0, i32 noundef %1, i32 noundef %2, i32 noundef %3, i32 noundef %4, ptr noundef %5) local_unnamed_addr #0 {
  %.not = icmp eq ptr %0, null
  br i1 %.not, label %7, label %9

7:                                                ; preds = %6
  %8 = load ptr, ptr @PyExc_ValueError, align 8, !tbaa !4
  tail call void @PyErr_SetString(ptr noundef %8, ptr noundef nonnull @.str.23) #8
  br label %17

9:                                                ; preds = %6
  %10 = tail call ptr @_PyArena_Malloc(ptr noundef %5, i64 noundef 80) #8
  %.not17 = icmp eq ptr %10, null
  br i1 %.not17, label %17, label %11

11:                                               ; preds = %9
  store i32 25, ptr %10, align 8, !tbaa !20
  %12 = getelementptr inbounds nuw i8, ptr %10, i64 8
  store ptr %0, ptr %12, align 8, !tbaa !9
  %13 = getelementptr inbounds nuw i8, ptr %10, i64 64
  store i32 %1, ptr %13, align 8, !tbaa !22
  %14 = getelementptr inbounds nuw i8, ptr %10, i64 68
  store i32 %2, ptr %14, align 4, !tbaa !23
  %15 = getelementptr inbounds nuw i8, ptr %10, i64 72
  store i32 %3, ptr %15, align 8, !tbaa !24
  %16 = getelementptr inbounds nuw i8, ptr %10, i64 76
  store i32 %4, ptr %16, align 4, !tbaa !25
  br label %17

17:                                               ; preds = %9, %11, %7
  %.0 = phi ptr [ %10, %11 ], [ null, %7 ], [ null, %9 ]
  ret ptr %.0
}